; Function Attrs: nounwind sspstrong uwtable
define hidden i64 @rb_process_status_new(i32 noundef %0, i32 noundef %1, i32 noundef %2) local_unnamed_addr #1 {
  %4 = load i64, ptr @rb_cProcessStatus, align 8, !tbaa !43
  %5 = tail call i64 @rb_data_typed_object_zalloc(i64 noundef %4, i64 noundef 12, ptr noundef nonnull @rb_process_status_type) #27
  %6 = inttoptr i64 %5 to ptr
  %7 = getelementptr inbounds nuw i8, ptr %6, i64 24
  %8 = load i64, ptr %7, align 8, !tbaa !44
  %9 = and i64 %8, 2
  %.not.i = icmp eq i64 %9, 0
  %10 = getelementptr i8, ptr %6, i64 32
  br i1 %.not.i, label %11, label %RTYPEDDATA_GET_DATA.exit

11:                                               ; preds = %3
  %12 = load ptr, ptr %10, align 8, !tbaa !48
  br label %RTYPEDDATA_GET_DATA.exit

RTYPEDDATA_GET_DATA.exit:                         ; preds = %3, %11
  %13 = phi ptr [ %12, %11 ], [ %10, %3 ]
  store i32 %0, ptr %13, align 4, !tbaa !49
  %14 = getelementptr inbounds nuw i8, ptr %13, i64 4
  store i32 %1, ptr %14, align 4, !tbaa !51
  %15 = getelementptr inbounds nuw i8, ptr %13, i64 8
  store i32 %2, ptr %15, align 4, !tbaa !52
  %16 = tail call i64 @rb_obj_freeze(i64 noundef %5) #27
  ret i64 %5
}